target datalayout = "e-m:e-p270:32:32-p271:32:32-p272:64:64-i64:64-i128:128-f80:128-n8:16:32:64-S128"
target triple = "x86_64-pc-linux-gnu"

; Function Attrs: nounwind uwtable
define hidden i32 @_glfwStringInExtensionString(ptr noundef %0, ptr noundef %1) #0 {
  %3 = alloca i32, align 4
  %4 = alloca ptr, align 8
  %5 = alloca ptr, align 8
  %6 = alloca ptr, align 8
  %7 = alloca ptr, align 8
  %8 = alloca ptr, align 8
  %9 = alloca i32, align 4
  store ptr %0, ptr %4, align 8, !tbaa !87
  store ptr %1, ptr %5, align 8, !tbaa !87
  call void @llvm.lifetime.start.p0(i64 8, ptr %6) #6
  %10 = load ptr, ptr %5, align 8, !tbaa !87
  store ptr %10, ptr %6, align 8, !tbaa !87
  br label %11

11:                                               ; preds = %48, %2
  call void @llvm.lifetime.start.p0(i64 8, ptr %7) #6
  call void @llvm.lifetime.start.p0(i64 8, ptr %8) #6
  %12 = load ptr, ptr %6, align 8, !tbaa !87
  %13 = load ptr, ptr %4, align 8, !tbaa !87
  %14 = call ptr @strstr(ptr noundef %12, ptr noundef %13) #7
  store ptr %14, ptr %7, align 8, !tbaa !87
  %15 = load ptr, ptr %7, align 8, !tbaa !87
  %16 = icmp ne ptr %15, null
  br i1 %16, label %18, label %17

17:                                               ; preds = %11
  store i32 0, ptr %3, align 4
  store i32 1, ptr %9, align 4
  br label %46

18:                                               ; preds = %11
  %19 = load ptr, ptr %7, align 8, !tbaa !87
  %20 = load ptr, ptr %4, align 8, !tbaa !87
  %21 = call i64 @strlen(ptr noundef %20) #7
  %22 = getelementptr inbounds nuw i8, ptr %19, i64 %21
  store ptr %22, ptr %8, align 8, !tbaa !87
  %23 = load ptr, ptr %7, align 8, !tbaa !87
  %24 = load ptr, ptr %6, align 8, !tbaa !87
  %25 = icmp eq ptr %23, %24
  br i1 %25, label %32, label %26

26:                                               ; preds = %18
  %27 = load ptr, ptr %7, align 8, !tbaa !87
  %28 = getelementptr inbounds i8, ptr %27, i64 -1
  %29 = load i8, ptr %28, align 1, !tbaa !179
  %30 = sext i8 %29 to i32
  %31 = icmp eq i32 %30, 32
  br i1 %31, label %32, label %44

32:                                               ; preds = %26, %18
  %33 = load ptr, ptr %8, align 8, !tbaa !87
  %34 = load i8, ptr %33, align 1, !tbaa !179
  %35 = sext i8 %34 to i32
  %36 = icmp eq i32 %35, 32
  br i1 %36, label %42, label %37

37:                                               ; preds = %32
  %38 = load ptr, ptr %8, align 8, !tbaa !87
  %39 = load i8, ptr %38, align 1, !tbaa !179
  %40 = sext i8 %39 to i32
  %41 = icmp eq i32 %40, 0
  br i1 %41, label %42, label %43

42:                                               ; preds = %37, %32
  store i32 2, ptr %9, align 4
  br label %46

43:                                               ; preds = %37
  br label %44

44:                                               ; preds = %43, %26
  %45 = load ptr, ptr %8, align 8, !tbaa !87
  store ptr %45, ptr %6, align 8, !tbaa !87
  store i32 0, ptr %9, align 4
  br label %46

46:                                               ; preds = %44, %42, %17
  call void @llvm.lifetime.end.p0(i64 8, ptr %8) #6
  call void @llvm.lifetime.end.p0(i64 8, ptr %7) #6
  %47 = load i32, ptr %9, align 4
  switch i32 %47, label %50 [
    i32 0, label %48
    i32 2, label %49
  ]

48:                                               ; preds = %46
  br label %11

49:                                               ; preds = %46
  store i32 1, ptr %3, align 4
  store i32 1, ptr %9, align 4
  br label %50

50:                                               ; preds = %49, %46
  call void @llvm.lifetime.end.p0(i64 8, ptr %6) #6
  %51 = load i32, ptr %3, align 4
  ret i32 %51
}