; Function Attrs: nofree nounwind memory(read, inaccessiblemem: none) uwtable
define hidden range(i32 0, 2) i32 @_glfwStringInExtensionString(ptr noundef readonly captures(none) %0, ptr noundef readonly %1) local_unnamed_addr #6 {
  %3 = tail call ptr @strstr(ptr noundef nonnull dereferenceable(1) %1, ptr noundef nonnull dereferenceable(1) %0) #8
  %.not23 = icmp eq ptr %3, null
  br i1 %.not23, label %.thread, label %.lr.ph

.lr.ph:                                           ; preds = %2
  %4 = tail call i64 @strlen(ptr noundef nonnull dereferenceable(1) %0) #8
  br label %5

5:                                                ; preds = %.lr.ph, %15
  %6 = phi ptr [ %3, %.lr.ph ], [ %16, %15 ]
  %.01424 = phi ptr [ %1, %.lr.ph ], [ %7, %15 ]
  %7 = getelementptr inbounds nuw i8, ptr %6, i64 %4
  %8 = icmp eq ptr %6, %.01424
  br i1 %8, label %13, label %9

9:                                                ; preds = %5
  %10 = getelementptr inbounds i8, ptr %6, i64 -1
  %11 = load i8, ptr %10, align 1, !tbaa !170
  %12 = icmp eq i8 %11, 32
  br i1 %12, label %13, label %15

13:                                               ; preds = %9, %5
  %14 = load i8, ptr %7, align 1, !tbaa !170
  switch i8 %14, label %15 [
    i8 32, label %.thread
    i8 0, label %.thread
  ]

15:                                               ; preds = %9, %13
  %16 = tail call ptr @strstr(ptr noundef nonnull dereferenceable(1) %7, ptr noundef nonnull dereferenceable(1) %0) #8
  %.not = icmp eq ptr %16, null
  br i1 %.not, label %.thread, label %5

.thread:                                          ; preds = %13, %13, %15, %2
  %.2 = phi i32 [ 0, %2 ], [ 0, %15 ], [ 1, %13 ], [ 1, %13 ]
  ret i32 %.2
}